; Function Attrs: mustprogress nofree norecurse nosync nounwind willreturn memory(read, inaccessiblemem: none) uwtable
define noundef i32 @_ZNK7testing8UnitTest17test_to_run_countEv(ptr nocapture noundef nonnull readonly align 8 dereferenceable(72) %this) local_unnamed_addr #13 align 2 {
entry:
  %impl_.i = getelementptr inbounds i8, ptr %this, i64 64
  %0 = load ptr, ptr %impl_.i, align 8
  %test_cases_.i = getelementptr inbounds i8, ptr %0, i64 184
  %_M_finish.i.i.i = getelementptr inbounds i8, ptr %0, i64 192
  %1 = load ptr, ptr %_M_finish.i.i.i, align 8
  %2 = load ptr, ptr %test_cases_.i, align 8
  %cmp9.not.i.i = icmp eq ptr %1, %2
  br i1 %cmp9.not.i.i, label %_ZNK7testing8internal12UnitTestImpl17test_to_run_countEv.exit, label %for.body.us.i.preheader.i

for.body.us.i.preheader.i:                        ; preds = %entry
  %sub.ptr.lhs.cast.i.us.i.i = ptrtoint ptr %1 to i64
  %sub.ptr.rhs.cast.i.us.i.i = ptrtoint ptr %2 to i64
  %sub.ptr.sub.i.us.i.i = sub i64 %sub.ptr.lhs.cast.i.us.i.i, %sub.ptr.rhs.cast.i.us.i.i
  %sub.ptr.div.i.us.i.i = ashr exact i64 %sub.ptr.sub.i.us.i.i, 3
  %umax.i = tail call i64 @llvm.umax.i64(i64 %sub.ptr.div.i.us.i.i, i64 1)
  br label %for.body.us.i.i

for.body.us.i.i:                                  ; preds = %_ZNK7testing8TestCase17test_to_run_countEv.exit.i, %for.body.us.i.preheader.i
  %i.011.us.i.i = phi i64 [ %inc.us.i.i, %_ZNK7testing8TestCase17test_to_run_countEv.exit.i ], [ 0, %for.body.us.i.preheader.i ]
  %sum.010.us.i.i = phi i32 [ %add.us.i.i, %_ZNK7testing8TestCase17test_to_run_countEv.exit.i ], [ 0, %for.body.us.i.preheader.i ]
  %add.ptr.i.us.i.i = getelementptr inbounds ptr, ptr %2, i64 %i.011.us.i.i
  %3 = load ptr, ptr %add.ptr.i.us.i.i, align 8
  %test_info_list_.i.i = getelementptr inbounds i8, ptr %3, i64 48
  %4 = load ptr, ptr %test_info_list_.i.i, align 8
  %_M_finish.i.i.i.i = getelementptr inbounds i8, ptr %3, i64 56
  %5 = load ptr, ptr %_M_finish.i.i.i.i, align 8
  %cmp.i.not5.i.i.i = icmp eq ptr %4, %5
  br i1 %cmp.i.not5.i.i.i, label %_ZNK7testing8TestCase17test_to_run_countEv.exit.i, label %for.body.i.i.i

for.body.i.i.i:                                   ; preds = %for.body.us.i.i, %for.body.i.i.i
  %count.07.i.i.i = phi i32 [ %spec.select.i.i.i, %for.body.i.i.i ], [ 0, %for.body.us.i.i ]
  %it.sroa.0.06.i.i.i = phi ptr [ %incdec.ptr.i.i.i.i, %for.body.i.i.i ], [ %4, %for.body.us.i.i ]
  %6 = load ptr, ptr %it.sroa.0.06.i.i.i, align 8
  %should_run_.i.i.i.i = getelementptr inbounds i8, ptr %6, i64 128
  %7 = load i8, ptr %should_run_.i.i.i.i, align 8
  %8 = and i8 %7, 1
  %inc.i.i.i = zext nneg i8 %8 to i32
  %spec.select.i.i.i = add nuw nsw i32 %count.07.i.i.i, %inc.i.i.i
  %incdec.ptr.i.i.i.i = getelementptr inbounds i8, ptr %it.sroa.0.06.i.i.i, i64 8
  %cmp.i.not.i.i.i = icmp eq ptr %incdec.ptr.i.i.i.i, %5
  br i1 %cmp.i.not.i.i.i, label %_ZNK7testing8TestCase17test_to_run_countEv.exit.i, label %for.body.i.i.i, !llvm.loop !39

_ZNK7testing8TestCase17test_to_run_countEv.exit.i: ; preds = %for.body.i.i.i, %for.body.us.i.i
  %count.0.lcssa.i.i.i = phi i32 [ 0, %for.body.us.i.i ], [ %spec.select.i.i.i, %for.body.i.i.i ]
  %add.us.i.i = add nsw i32 %count.0.lcssa.i.i.i, %sum.010.us.i.i
  %inc.us.i.i = add nuw i64 %i.011.us.i.i, 1
  %exitcond.not.i = icmp eq i64 %inc.us.i.i, %umax.i
  br i1 %exitcond.not.i, label %_ZNK7testing8internal12UnitTestImpl17test_to_run_countEv.exit, label %for.body.us.i.i, !llvm.loop !41

_ZNK7testing8internal12UnitTestImpl17test_to_run_countEv.exit: ; preds = %_ZNK7testing8TestCase17test_to_run_countEv.exit.i, %entry
  %sum.0.lcssa.i.i = phi i32 [ 0, %entry ], [ %add.us.i.i, %_ZNK7testing8TestCase17test_to_run_countEv.exit.i ]
  ret i32 %sum.0.lcssa.i.i
}